target datalayout = "e-m:e-p270:32:32-p271:32:32-p272:64:64-i64:64-i128:128-f80:128-n8:16:32:64-S128"
target triple = "x86_64-pc-linux-gnu"

%struct._packet_info = type { ptr, ptr, i32, i32, %struct.nstime_t, %struct.nstime_t, %struct.nstime_t, i8, ptr, ptr, ptr, ptr, %struct._address, %struct._address, %struct._address, %struct._address, %struct._address, %struct._address, i32, ptr, i8, [3 x i8], %struct.anon, i32, i32, i32, i32, ptr, i8, ptr, ptr, i16, i16, i32, i32, i16, i32, i32, ptr, ptr, ptr, i8, i8, i16, i16, i16, i32, i16, i16, ptr, ptr, ptr, ptr, ptr, i32, i32 }
%struct.nstime_t = type { i64, i32 }
%struct._address = type { i32, i32, ptr, ptr }
%struct.anon = type { i8, [3 x i8] }
%struct._frame_data = type <{ i32, i32, i32, i32, i32, [4 x i8], i64, ptr, ptr, ptr, i8, i16, [5 x i8], %struct.nstime_t, %struct.nstime_t, i32, i32 }>
%struct._proto_data = type { i32, i32, ptr }
%struct._GSList = type { ptr, ptr }

@.str = private unnamed_addr constant [29 x i8] c"%s:%u: failed assertion \22%s\22\00", align 1
@.str.1 = private unnamed_addr constant [18 x i8] c"epan/proto_data.c\00", align 1
@.str.2 = private unnamed_addr constant [22 x i8] c"!\22invalid wmem scope\22\00", align 1

; Function Attrs: null_pointer_is_valid sspstrong uwtable
define void @p_remove_proto_data(ptr noundef %0, ptr noundef %1, i32 noundef %2, i32 noundef %3) #0 {
  %5 = alloca ptr, align 8
  %6 = alloca ptr, align 8
  %7 = alloca i32, align 4
  %8 = alloca i32, align 4
  %9 = alloca %struct._proto_data, align 8
  %10 = alloca ptr, align 8
  %11 = alloca ptr, align 8
  store ptr %0, ptr %5, align 8
  store ptr %1, ptr %6, align 8
  store i32 %2, ptr %7, align 4
  store i32 %3, ptr %8, align 4
  call void @llvm.lifetime.start.p0(i64 16, ptr %9) #6
  call void @llvm.lifetime.start.p0(i64 8, ptr %10) #6
  call void @llvm.lifetime.start.p0(i64 8, ptr %11) #6
  %12 = load i32, ptr %7, align 4
  %13 = getelementptr inbounds nuw %struct._proto_data, ptr %9, i32 0, i32 0
  store i32 %12, ptr %13, align 8
  %14 = load i32, ptr %8, align 4
  %15 = getelementptr inbounds nuw %struct._proto_data, ptr %9, i32 0, i32 1
  store i32 %14, ptr %15, align 4
  %16 = getelementptr inbounds nuw %struct._proto_data, ptr %9, i32 0, i32 2
  store ptr null, ptr %16, align 8
  %17 = load ptr, ptr %5, align 8
  %18 = load ptr, ptr %6, align 8
  %19 = getelementptr inbounds nuw %struct._packet_info, ptr %18, i32 0, i32 51
  %20 = load ptr, ptr %19, align 8
  %21 = icmp eq ptr %17, %20
  br i1 %21, label %22, label %29

22:                                               ; preds = %4
  %23 = load ptr, ptr %6, align 8
  %24 = getelementptr inbounds nuw %struct._packet_info, ptr %23, i32 0, i32 49
  %25 = load ptr, ptr %24, align 8
  %26 = call ptr @g_slist_find_custom(ptr noundef %25, ptr noundef %9, ptr noundef @p_compare)
  store ptr %26, ptr %10, align 8
  %27 = load ptr, ptr %6, align 8
  %28 = getelementptr inbounds nuw %struct._packet_info, ptr %27, i32 0, i32 49
  store ptr %28, ptr %11, align 8
  br label %46

29:                                               ; preds = %4
  %30 = load ptr, ptr %5, align 8
  %31 = call ptr @wmem_file_scope()
  %32 = icmp eq ptr %30, %31
  br i1 %32, label %33, label %44

33:                                               ; preds = %29
  %34 = load ptr, ptr %6, align 8
  %35 = getelementptr inbounds nuw %struct._packet_info, ptr %34, i32 0, i32 8
  %36 = load ptr, ptr %35, align 8
  %37 = getelementptr inbounds nuw %struct._frame_data, ptr %36, i32 0, i32 7
  %38 = load ptr, ptr %37, align 8
  %39 = call ptr @g_slist_find_custom(ptr noundef %38, ptr noundef %9, ptr noundef @p_compare)
  store ptr %39, ptr %10, align 8
  %40 = load ptr, ptr %6, align 8
  %41 = getelementptr inbounds nuw %struct._packet_info, ptr %40, i32 0, i32 8
  %42 = load ptr, ptr %41, align 8
  %43 = getelementptr inbounds nuw %struct._frame_data, ptr %42, i32 0, i32 7
  store ptr %43, ptr %11, align 8
  br label %45

44:                                               ; preds = %29
  call void (ptr, ...) @proto_report_dissector_bug(ptr noundef @.str, ptr noundef @.str.1, i32 noundef 147, ptr noundef @.str.2) #7
  unreachable

45:                                               ; preds = %33
  br label %46

46:                                               ; preds = %45, %22
  %47 = load ptr, ptr %10, align 8
  %48 = icmp ne ptr %47, null
  br i1 %48, label %49, label %57

49:                                               ; preds = %46
  %50 = load ptr, ptr %11, align 8
  %51 = load ptr, ptr %50, align 8
  %52 = load ptr, ptr %10, align 8
  %53 = getelementptr inbounds nuw %struct._GSList, ptr %52, i32 0, i32 0
  %54 = load ptr, ptr %53, align 8
  %55 = call ptr @g_slist_remove(ptr noundef %51, ptr noundef %54)
  %56 = load ptr, ptr %11, align 8
  store ptr %55, ptr %56, align 8
  br label %57

57:                                               ; preds = %49, %46
  call void @llvm.lifetime.end.p0(i64 8, ptr %11) #6
  call void @llvm.lifetime.end.p0(i64 8, ptr %10) #6
  call void @llvm.lifetime.end.p0(i64 16, ptr %9) #6
  ret void
}