; Function Attrs: null_pointer_is_valid sspstrong uwtable
define void @p_remove_proto_data(ptr noundef readnone captures(address) %0, ptr noundef captures(none) %1, i32 noundef %2, i32 noundef %3) local_unnamed_addr #0 {
  %5 = alloca %struct._proto_data, align 8
  call void @llvm.lifetime.start.p0(i64 16, ptr nonnull %5) #8
  store i32 %2, ptr %5, align 8
  %6 = getelementptr inbounds nuw i8, ptr %5, i64 4
  store i32 %3, ptr %6, align 4
  %7 = getelementptr inbounds nuw i8, ptr %5, i64 8
  store ptr null, ptr %7, align 8
  %8 = getelementptr inbounds nuw i8, ptr %1, i64 408
  %9 = load ptr, ptr %8, align 8
  %10 = icmp eq ptr %0, %9
  br i1 %10, label %11, label %15

11:                                               ; preds = %4
  %12 = getelementptr inbounds nuw i8, ptr %1, i64 392
  %13 = load ptr, ptr %12, align 8
  %14 = call ptr @g_slist_find_custom(ptr noundef %13, ptr noundef nonnull %5, ptr noundef nonnull @p_compare)
  br label %27

15:                                               ; preds = %4
  %16 = tail call ptr @wmem_file_scope()
  %17 = icmp eq ptr %0, %16
  br i1 %17, label %18, label %26

18:                                               ; preds = %15
  %19 = getelementptr inbounds nuw i8, ptr %1, i64 80
  %20 = load ptr, ptr %19, align 8
  %21 = getelementptr inbounds nuw i8, ptr %20, i64 32
  %22 = load ptr, ptr %21, align 8
  %23 = call ptr @g_slist_find_custom(ptr noundef %22, ptr noundef nonnull %5, ptr noundef nonnull @p_compare)
  %24 = load ptr, ptr %19, align 8
  %25 = getelementptr inbounds nuw i8, ptr %24, i64 32
  br label %27

26:                                               ; preds = %15
  tail call void (ptr, ...) @proto_report_dissector_bug(ptr noundef nonnull @.str, ptr noundef nonnull @.str.1, i32 noundef 147, ptr noundef nonnull @.str.2) #6
  unreachable

27:                                               ; preds = %18, %11
  %.012 = phi ptr [ %14, %11 ], [ %23, %18 ]
  %.0 = phi ptr [ %12, %11 ], [ %25, %18 ]
  %.not = icmp eq ptr %.012, null
  br i1 %.not, label %32, label %28

28:                                               ; preds = %27
  %29 = load ptr, ptr %.0, align 8
  %30 = load ptr, ptr %.012, align 8
  %31 = call ptr @g_slist_remove(ptr noundef %29, ptr noundef %30)
  store ptr %31, ptr %.0, align 8
  br label %32

32:                                               ; preds = %28, %27
  call void @llvm.lifetime.end.p0(i64 16, ptr nonnull %5) #8
  ret void
}